target datalayout = "e-m:e-p270:32:32-p271:32:32-p272:64:64-i64:64-i128:128-f80:128-n8:16:32:64-S128"
target triple = "x86_64-pc-linux-gnu"

%struct.ForEachState = type { ptr, i32 }
%struct.List = type { i32, i32, i32, ptr, [0 x %union.ListCell] }
%union.ListCell = type { ptr }
%struct.RestrictInfo = type { i32, ptr, i8, i8, i8, i8, i8, i8, i32, i32, i32, ptr, ptr, ptr, ptr, ptr, ptr, ptr, i32, ptr, %struct.QualCost, double, double, ptr, ptr, ptr, ptr, ptr, ptr, i8, i32, double, double, double, double, i32, i32 }
%struct.QualCost = type { double, double }

; Function Attrs: nounwind uwtable
define dso_local ptr @get_actual_clauses(ptr noundef %0) #0 {
  %2 = alloca ptr, align 8
  %3 = alloca ptr, align 8
  %4 = alloca ptr, align 8
  %5 = alloca %struct.ForEachState, align 8
  %6 = alloca ptr, align 8
  store ptr %0, ptr %2, align 8
  call void @llvm.lifetime.start.p0(i64 8, ptr %3) #6
  store ptr null, ptr %3, align 8
  call void @llvm.lifetime.start.p0(i64 8, ptr %4) #6
  call void @llvm.lifetime.start.p0(i64 16, ptr %5) #6
  %7 = getelementptr inbounds nuw %struct.ForEachState, ptr %5, i32 0, i32 0
  %8 = load ptr, ptr %2, align 8
  store ptr %8, ptr %7, align 8
  %9 = getelementptr inbounds nuw %struct.ForEachState, ptr %5, i32 0, i32 1
  store i32 0, ptr %9, align 8
  %10 = getelementptr i8, ptr %5, i64 12
  call void @llvm.memset.p0.i64(ptr align 4 %10, i8 0, i64 4, i1 false)
  br label %11

11:                                               ; preds = %45, %1
  %12 = getelementptr inbounds nuw %struct.ForEachState, ptr %5, i32 0, i32 0
  %13 = load ptr, ptr %12, align 8
  %14 = icmp ne ptr %13, null
  br i1 %14, label %15, label %32

15:                                               ; preds = %11
  %16 = getelementptr inbounds nuw %struct.ForEachState, ptr %5, i32 0, i32 1
  %17 = load i32, ptr %16, align 8
  %18 = getelementptr inbounds nuw %struct.ForEachState, ptr %5, i32 0, i32 0
  %19 = load ptr, ptr %18, align 8
  %20 = getelementptr inbounds nuw %struct.List, ptr %19, i32 0, i32 1
  %21 = load i32, ptr %20, align 4
  %22 = icmp slt i32 %17, %21
  br i1 %22, label %23, label %32

23:                                               ; preds = %15
  %24 = getelementptr inbounds nuw %struct.ForEachState, ptr %5, i32 0, i32 0
  %25 = load ptr, ptr %24, align 8
  %26 = getelementptr inbounds nuw %struct.List, ptr %25, i32 0, i32 3
  %27 = load ptr, ptr %26, align 8
  %28 = getelementptr inbounds nuw %struct.ForEachState, ptr %5, i32 0, i32 1
  %29 = load i32, ptr %28, align 8
  %30 = sext i32 %29 to i64
  %31 = getelementptr inbounds %union.ListCell, ptr %27, i64 %30
  store ptr %31, ptr %4, align 8
  br label %33

32:                                               ; preds = %15, %11
  store ptr null, ptr %4, align 8
  br label %33

33:                                               ; preds = %32, %23
  %34 = phi i32 [ 1, %23 ], [ 0, %32 ]
  %35 = icmp ne i32 %34, 0
  br i1 %35, label %37, label %36

36:                                               ; preds = %33
  call void @llvm.lifetime.end.p0(i64 16, ptr %5) #6
  br label %49

37:                                               ; preds = %33
  call void @llvm.lifetime.start.p0(i64 8, ptr %6) #6
  %38 = load ptr, ptr %4, align 8
  %39 = load ptr, ptr %38, align 8
  store ptr %39, ptr %6, align 8
  %40 = load ptr, ptr %3, align 8
  %41 = load ptr, ptr %6, align 8
  %42 = getelementptr inbounds nuw %struct.RestrictInfo, ptr %41, i32 0, i32 1
  %43 = load ptr, ptr %42, align 8
  %44 = call ptr @lappend(ptr noundef %40, ptr noundef %43)
  store ptr %44, ptr %3, align 8
  call void @llvm.lifetime.end.p0(i64 8, ptr %6) #6
  br label %45

45:                                               ; preds = %37
  %46 = getelementptr inbounds nuw %struct.ForEachState, ptr %5, i32 0, i32 1
  %47 = load i32, ptr %46, align 8
  %48 = add i32 %47, 1
  store i32 %48, ptr %46, align 8
  br label %11, !llvm.loop !9

49:                                               ; preds = %36
  %50 = load ptr, ptr %3, align 8
  call void @llvm.lifetime.end.p0(i64 8, ptr %4) #6
  call void @llvm.lifetime.end.p0(i64 8, ptr %3) #6
  ret ptr %50
}