; Function Attrs: nounwind uwtable
define dso_local ptr @get_actual_clauses(ptr noundef readonly captures(address_is_null) %0) local_unnamed_addr #0 {
  %2 = getelementptr inbounds nuw i8, ptr %0, i64 4
  %.not = icmp eq ptr %0, null
  br i1 %.not, label %._crit_edge, label %.lr.ph

.lr.ph:                                           ; preds = %1
  %3 = getelementptr inbounds nuw i8, ptr %0, i64 16
  %4 = load i32, ptr %2, align 4
  %5 = icmp sgt i32 %4, 0
  br i1 %5, label %.lr.ph21, label %._crit_edge

._crit_edge:                                      ; preds = %.lr.ph21, %.lr.ph, %1
  %.0.lcssa = phi ptr [ null, %1 ], [ null, %.lr.ph ], [ %11, %.lr.ph21 ]
  ret ptr %.0.lcssa

.lr.ph21:                                         ; preds = %.lr.ph, %.lr.ph21
  %indvars.iv = phi i64 [ %indvars.iv.next, %.lr.ph21 ], [ 0, %.lr.ph ]
  %.01519 = phi ptr [ %11, %.lr.ph21 ], [ null, %.lr.ph ]
  %6 = load ptr, ptr %3, align 8
  %7 = getelementptr inbounds nuw %union.ListCell, ptr %6, i64 %indvars.iv
  %8 = load ptr, ptr %7, align 8
  %9 = getelementptr inbounds nuw i8, ptr %8, i64 8
  %10 = load ptr, ptr %9, align 8
  %11 = tail call ptr @lappend(ptr noundef %.01519, ptr noundef %10) #5
  %indvars.iv.next = add nuw nsw i64 %indvars.iv, 1
  %12 = load i32, ptr %2, align 4
  %13 = sext i32 %12 to i64
  %14 = icmp slt i64 %indvars.iv.next, %13
  br i1 %14, label %.lr.ph21, label %._crit_edge
}